	.file	"test6.c"
	.text
	.globl	_Z13calculate_sumiiiiiii
	.type	_Z13calculate_sumiiiiiii, @function
_Z13calculate_sumiiiiiii:
.LFB0:
	.cfi_startproc
	endbr64
	pushq	%rbp
	.cfi_def_cfa_offset 16
	.cfi_offset 6, -16
	movq	%rsp, %rbp
	.cfi_def_cfa_register 6
	movl	%edi, -4(%rbp)
	movl	%esi, -8(%rbp)
	movl	%edx, -12(%rbp)
	movl	%ecx, -16(%rbp)
	movl	%r8d, -20(%rbp)
	movl	%r9d, -24(%rbp)
	movl	-4(%rbp), %edx
	movl	-8(%rbp), %eax
	addl	%eax, %edx
	movl	-12(%rbp), %eax
	addl	%eax, %edx
	movl	-16(%rbp), %eax
	addl	%eax, %edx
	movl	-20(%rbp), %eax
	addl	%eax, %edx
	movl	-24(%rbp), %eax
	addl	%eax, %edx
	movl	16(%rbp), %eax
	addl	%edx, %eax
	popq	%rbp
	.cfi_def_cfa 7, 8
	ret
	.cfi_endproc
.LFE0:
	.size	_Z13calculate_sumiiiiiii, .-_Z13calculate_sumiiiiiii
	.section	.rodata
	.align 8
.LC0:
	.string	"The value of 3rd number in array is: "
.LC1:
	.string	"%d"
	.align 8
.LC2:
	.string	"New value of 3rd number in array is: "
	.align 8
.LC3:
	.string	"Sum of first 7 whole numbers is: "
.LC4:
	.string	"Sum of array is: "
	.text
	.globl	_Z4mainv
	.type	_Z4mainv, @function
_Z4mainv:
.LFB1:
	.cfi_startproc
	endbr64
	pushq	%rbp
	.cfi_def_cfa_offset 16
	.cfi_offset 6, -16
	movq	%rsp, %rbp
	.cfi_def_cfa_register 6
	subq	$48, %rsp
	movl	$1, -48(%rbp)
	movl	$2, -44(%rbp)
	movl	$3, -40(%rbp)
	movl	$4, -36(%rbp)
	movl	$5, -32(%rbp)
	movl	$6, -28(%rbp)
	movl	$7, -24(%rbp)
	leaq	.LC0(%rip), %rdi
	movl	$0, %eax
	call	printf@PLT
	movl	-40(%rbp), %eax
	movl	%eax, %esi
	leaq	.LC1(%rip), %rdi
	movl	$0, %eax
	call	printf@PLT
	movl	$10, %edi
	call	putchar@PLT
	movl	$10, -40(%rbp)
	leaq	.LC2(%rip), %rdi
	movl	$0, %eax
	call	printf@PLT
	movl	-40(%rbp), %eax
	movl	%eax, %esi
	leaq	.LC1(%rip), %rdi
	movl	$0, %eax
	call	printf@PLT
	movl	$10, %edi
	call	putchar@PLT
	subq	$8, %rsp
	pushq	$6
	movl	$5, %r9d
	movl	$4, %r8d
	movl	$3, %ecx
	movl	$2, %edx
	movl	$1, %esi
	movl	$0, %edi
	call	_Z13calculate_sumiiiiiii
	addq	$16, %rsp
	movl	%eax, -4(%rbp)
	leaq	.LC3(%rip), %rdi
	movl	$0, %eax
	call	printf@PLT
	movl	-4(%rbp), %eax
	movl	%eax, %esi
	leaq	.LC1(%rip), %rdi
	movl	$0, %eax
	call	printf@PLT
	movl	$10, %edi
	call	putchar@PLT
	movl	-24(%rbp), %edi
	movl	-28(%rbp), %r9d
	movl	-32(%rbp), %r8d
	movl	-36(%rbp), %ecx
	movl	-40(%rbp), %edx
	movl	-44(%rbp), %esi
	movl	-48(%rbp), %eax
	subq	$8, %rsp
	pushq	%rdi
	movl	%eax, %edi
	call	_Z13calculate_sumiiiiiii
	addq	$16, %rsp
	movl	%eax, -8(%rbp)
	leaq	.LC4(%rip), %rdi
	movl	$0, %eax
	call	printf@PLT
	movl	-8(%rbp), %eax
	movl	%eax, %esi
	leaq	.LC1(%rip), %rdi
	movl	$0, %eax
	call	printf@PLT
	movl	$10, %edi
	call	putchar@PLT
	nop
	leave
	.cfi_def_cfa 7, 8
	ret
	.cfi_endproc
.LFE1:
	.size	_Z4mainv, .-_Z4mainv
	.globl	main
	.type	main, @function
main:
.LFB2:
	.cfi_startproc
	endbr64
	pushq	%rbp
	.cfi_def_cfa_offset 16
	.cfi_offset 6, -16
	movq	%rsp, %rbp
	.cfi_def_cfa_register 6
	call	_Z4mainv
	movl	$0, %eax
	popq	%rbp
	.cfi_def_cfa 7, 8
	ret
	.cfi_endproc
.LFE2:
	.size	main, .-main
